; Function Attrs: nounwind uwtable
define internal noundef i32 @stringio_clear(ptr noundef captures(none) %0) #0 {
  %2 = getelementptr inbounds nuw i8, ptr %0, i64 80
  %3 = load ptr, ptr %2, align 8, !tbaa !37
  %.not = icmp eq ptr %3, null
  br i1 %.not, label %Py_DECREF.exit, label %4

4:                                                ; preds = %1
  store ptr null, ptr %2, align 8, !tbaa !37
  %5 = load i32, ptr %3, align 8, !tbaa !32
  %.not.i = icmp sgt i32 %5, -1
  br i1 %.not.i, label %6, label %Py_DECREF.exit

6:                                                ; preds = %4
  %7 = add nsw i32 %5, -1
  store i32 %7, ptr %3, align 8, !tbaa !32
  %8 = icmp eq i32 %7, 0
  br i1 %8, label %9, label %Py_DECREF.exit

9:                                                ; preds = %6
  tail call void @_Py_Dealloc(ptr noundef nonnull %3) #6
  br label %Py_DECREF.exit

Py_DECREF.exit:                                   ; preds = %9, %6, %4, %1
  %10 = getelementptr inbounds nuw i8, ptr %0, i64 88
  %11 = load ptr, ptr %10, align 8, !tbaa !37
  %.not23 = icmp eq ptr %11, null
  br i1 %.not23, label %Py_DECREF.exit27, label %12

12:                                               ; preds = %Py_DECREF.exit
  store ptr null, ptr %10, align 8, !tbaa !37
  %13 = load i32, ptr %11, align 8, !tbaa !32
  %.not.i26 = icmp sgt i32 %13, -1
  br i1 %.not.i26, label %14, label %Py_DECREF.exit27

14:                                               ; preds = %12
  %15 = add nsw i32 %13, -1
  store i32 %15, ptr %11, align 8, !tbaa !32
  %16 = icmp eq i32 %15, 0
  br i1 %16, label %17, label %Py_DECREF.exit27

17:                                               ; preds = %14
  tail call void @_Py_Dealloc(ptr noundef nonnull %11) #6
  br label %Py_DECREF.exit27

Py_DECREF.exit27:                                 ; preds = %17, %14, %12, %Py_DECREF.exit
  %18 = getelementptr inbounds nuw i8, ptr %0, i64 72
  %19 = load ptr, ptr %18, align 8, !tbaa !37
  %.not24 = icmp eq ptr %19, null
  br i1 %.not24, label %Py_DECREF.exit29, label %20

20:                                               ; preds = %Py_DECREF.exit27
  store ptr null, ptr %18, align 8, !tbaa !37
  %21 = load i32, ptr %19, align 8, !tbaa !32
  %.not.i28 = icmp sgt i32 %21, -1
  br i1 %.not.i28, label %22, label %Py_DECREF.exit29

22:                                               ; preds = %20
  %23 = add nsw i32 %21, -1
  store i32 %23, ptr %19, align 8, !tbaa !32
  %24 = icmp eq i32 %23, 0
  br i1 %24, label %25, label %Py_DECREF.exit29

25:                                               ; preds = %22
  tail call void @_Py_Dealloc(ptr noundef nonnull %19) #6
  br label %Py_DECREF.exit29

Py_DECREF.exit29:                                 ; preds = %25, %22, %20, %Py_DECREF.exit27
  %26 = getelementptr inbounds nuw i8, ptr %0, i64 96
  %27 = load ptr, ptr %26, align 8, !tbaa !37
  %.not25 = icmp eq ptr %27, null
  br i1 %.not25, label %Py_DECREF.exit31, label %28

28:                                               ; preds = %Py_DECREF.exit29
  store ptr null, ptr %26, align 8, !tbaa !37
  %29 = load i32, ptr %27, align 8, !tbaa !32
  %.not.i30 = icmp sgt i32 %29, -1
  br i1 %.not.i30, label %30, label %Py_DECREF.exit31

30:                                               ; preds = %28
  %31 = add nsw i32 %29, -1
  store i32 %31, ptr %27, align 8, !tbaa !32
  %32 = icmp eq i32 %31, 0
  br i1 %32, label %33, label %Py_DECREF.exit31

33:                                               ; preds = %30
  tail call void @_Py_Dealloc(ptr noundef nonnull %27) #6
  br label %Py_DECREF.exit31

Py_DECREF.exit31:                                 ; preds = %33, %30, %28, %Py_DECREF.exit29
  ret i32 0
}